; Function Attrs: nounwind uwtable
define dso_local void @nghttp2_hd_inflate_free(ptr noundef captures(none) %0) local_unnamed_addr #0 {
  %2 = getelementptr inbounds nuw i8, ptr %0, i64 176
  %3 = load ptr, ptr %2, align 8, !tbaa !67
  tail call void @nghttp2_rcbuf_decref(ptr noundef %3) #13
  %4 = getelementptr inbounds nuw i8, ptr %0, i64 168
  %5 = load ptr, ptr %4, align 8, !tbaa !68
  tail call void @nghttp2_rcbuf_decref(ptr noundef %5) #13
  tail call void @llvm.memset.p0.i64(ptr noundef nonnull align 8 dereferenceable(16) %4, i8 0, i64 16, i1 false)
  %6 = getelementptr inbounds nuw i8, ptr %0, i64 160
  %7 = load ptr, ptr %6, align 8, !tbaa !69
  tail call void @nghttp2_rcbuf_decref(ptr noundef %7) #13
  %8 = getelementptr inbounds nuw i8, ptr %0, i64 152
  %9 = load ptr, ptr %8, align 8, !tbaa !70
  tail call void @nghttp2_rcbuf_decref(ptr noundef %9) #13
  %10 = getelementptr inbounds nuw i8, ptr %0, i64 32
  %11 = load ptr, ptr %10, align 8, !tbaa !34
  %12 = getelementptr inbounds nuw i8, ptr %0, i64 24
  %13 = load i64, ptr %12, align 8, !tbaa !62
  %.not.i.i = icmp eq i64 %13, 0
  br i1 %.not.i.i, label %hd_context_free.exit, label %.lr.ph.i.i

.lr.ph.i.i:                                       ; preds = %1
  %14 = getelementptr inbounds nuw i8, ptr %0, i64 16
  %15 = getelementptr inbounds nuw i8, ptr %0, i64 8
  br label %16

16:                                               ; preds = %16, %.lr.ph.i.i
  %.011.i.i = phi i64 [ 0, %.lr.ph.i.i ], [ %27, %16 ]
  %17 = load ptr, ptr %0, align 8, !tbaa !40
  %18 = load i64, ptr %14, align 8, !tbaa !63
  %19 = add i64 %18, %.011.i.i
  %20 = load i64, ptr %15, align 8, !tbaa !41
  %21 = and i64 %19, %20
  %22 = getelementptr inbounds nuw ptr, ptr %17, i64 %21
  %23 = load ptr, ptr %22, align 8, !tbaa !64
  %24 = getelementptr inbounds nuw i8, ptr %23, i64 8
  %25 = load ptr, ptr %24, align 8, !tbaa !33
  tail call void @nghttp2_rcbuf_decref(ptr noundef %25) #13
  %26 = load ptr, ptr %23, align 8, !tbaa !32
  tail call void @nghttp2_rcbuf_decref(ptr noundef %26) #13
  tail call void @nghttp2_mem_free(ptr noundef %11, ptr noundef nonnull %23) #13
  %27 = add nuw i64 %.011.i.i, 1
  %28 = load i64, ptr %12, align 8, !tbaa !62
  %29 = icmp ult i64 %27, %28
  br i1 %29, label %16, label %hd_context_free.exit, !llvm.loop !65

hd_context_free.exit:                             ; preds = %16, %1
  %30 = load ptr, ptr %0, align 8, !tbaa !40
  tail call void @nghttp2_mem_free(ptr noundef %11, ptr noundef %30) #13
  ret void
}